target datalayout = "e-m:e-p270:32:32-p271:32:32-p272:64:64-i64:64-i128:128-f80:128-n8:16:32:64-S128"
target triple = "x86_64-pc-linux-gnu"

%struct._psqlSettings = type { ptr, i32, ptr, i8, ptr, ptr, %struct.printQueryOpt, ptr, ptr, ptr, i8, i8, i32, i32, ptr, ptr, i8, [4 x ptr], i8, i32, ptr, i8, i32, ptr, ptr, i64, i64, i8, ptr, ptr, ptr, i8, i8, i8, i8, i8, i8, i8, i32, i32, i32, i32, i32, i32, i32, i32, ptr, ptr, ptr, i32, i8, i32 }
%struct.printQueryOpt = type { %struct.printTableOpt, ptr, ptr, ptr, i8, ptr, i32 }
%struct.printTableOpt = type { i32, i16, i32, i32, i16, i16, i32, i8, i8, i8, i8, i64, ptr, %struct.separator, %struct.separator, [2 x i8], i8, ptr, i32, i32, i32, i32, i32, i32 }
%struct.separator = type { ptr, i8 }
%struct.PQExpBufferData = type { ptr, i64, i64 }

@pset = external global %struct._psqlSettings, align 8
@.str.1 = private unnamed_addr constant [7 x i8] c"Schema\00", align 1
@.str.2 = private unnamed_addr constant [5 x i8] c"Name\00", align 1
@.str.6 = private unnamed_addr constant [12 x i8] c"Description\00", align 1
@.str.8 = private unnamed_addr constant [81 x i8] c"      AND n.nspname <> 'pg_catalog'\0A      AND n.nspname <> 'information_schema'\0A\00", align 1
@.str.9 = private unnamed_addr constant [10 x i8] c"n.nspname\00", align 1
@.str.26 = private unnamed_addr constant [6 x i8] c"Owner\00", align 1
@.str.28 = private unnamed_addr constant [5 x i8] c",\0A  \00", align 1
@.str.32 = private unnamed_addr constant [5 x i8] c"Size\00", align 1
@.str.69 = private unnamed_addr constant [14 x i8] c"Internal name\00", align 1
@.str.98 = private unnamed_addr constant [74 x i8] c"SELECT n.nspname as \22%s\22,\0A  pg_catalog.format_type(t.oid, NULL) AS \22%s\22,\0A\00", align 1
@.str.100 = private unnamed_addr constant [9 x i8] c"Elements\00", align 1
@.str.101 = private unnamed_addr constant [9 x i8] c"t.typacl\00", align 1
@.str.102 = private unnamed_addr constant [56 x i8] c"  pg_catalog.obj_description(t.oid, 'pg_type') as \22%s\22\0A\00", align 1
@.str.103 = private unnamed_addr constant [94 x i8] c"FROM pg_catalog.pg_type t\0A     LEFT JOIN pg_catalog.pg_namespace n ON n.oid = t.typnamespace\0A\00", align 1
@.str.104 = private unnamed_addr constant [23 x i8] c"WHERE (t.typrelid = 0 \00", align 1
@.str.105 = private unnamed_addr constant [82 x i8] c"OR (SELECT c.relkind = 'c' FROM pg_catalog.pg_class c WHERE c.oid = t.typrelid))\0A\00", align 1
@.str.106 = private unnamed_addr constant [3 x i8] c"[]\00", align 1
@.str.107 = private unnamed_addr constant [104 x i8] c"  AND NOT EXISTS(SELECT 1 FROM pg_catalog.pg_type el WHERE el.oid = t.typelem AND el.typarray = t.oid)\0A\00", align 1
@.str.108 = private unnamed_addr constant [10 x i8] c"t.typname\00", align 1
@.str.109 = private unnamed_addr constant [36 x i8] c"pg_catalog.format_type(t.oid, NULL)\00", align 1
@.str.110 = private unnamed_addr constant [37 x i8] c"pg_catalog.pg_type_is_visible(t.oid)\00", align 1
@.str.111 = private unnamed_addr constant [15 x i8] c"ORDER BY 1, 2;\00", align 1
@.str.112 = private unnamed_addr constant [19 x i8] c"List of data types\00", align 1
@.str.167 = private unnamed_addr constant [18 x i8] c"Access privileges\00", align 1
@.str.916 = private unnamed_addr constant [110 x i8] c"CASE WHEN pg_catalog.array_length(%s, 1) = 0 THEN '%s' ELSE pg_catalog.array_to_string(%s, E'\\n') END AS \22%s\22\00", align 1
@.str.917 = private unnamed_addr constant [7 x i8] c"(none)\00", align 1

; Function Attrs: nounwind uwtable
define internal ptr @map_typename_pattern(ptr noundef %0) #0 {
  %2 = alloca ptr, align 8
  %3 = alloca ptr, align 8
  %4 = alloca i32, align 4
  %5 = alloca i32, align 4
  store ptr %0, ptr %3, align 8
  %6 = load ptr, ptr %3, align 8
  %7 = icmp eq ptr %6, null
  br i1 %7, label %8, label %9

8:                                                ; preds = %1
  store ptr null, ptr %2, align 8
  br label %39

9:                                                ; preds = %1
  call void @llvm.lifetime.start.p0(i64 4, ptr %4) #8
  store i32 0, ptr %4, align 4
  br label %10

10:                                               ; preds = %32, %9
  %11 = load i32, ptr %4, align 4
  %12 = sext i32 %11 to i64
  %13 = getelementptr inbounds [37 x ptr], ptr @map_typename_pattern.typename_map, i64 0, i64 %12
  %14 = load ptr, ptr %13, align 8
  %15 = icmp ne ptr %14, null
  br i1 %15, label %17, label %16

16:                                               ; preds = %10
  store i32 2, ptr %5, align 4
  br label %35

17:                                               ; preds = %10
  %18 = load ptr, ptr %3, align 8
  %19 = load i32, ptr %4, align 4
  %20 = sext i32 %19 to i64
  %21 = getelementptr inbounds [37 x ptr], ptr @map_typename_pattern.typename_map, i64 0, i64 %20
  %22 = load ptr, ptr %21, align 8
  %23 = call i32 @pg_strcasecmp(ptr noundef %18, ptr noundef %22)
  %24 = icmp eq i32 %23, 0
  br i1 %24, label %25, label %31

25:                                               ; preds = %17
  %26 = load i32, ptr %4, align 4
  %27 = add i32 %26, 1
  %28 = sext i32 %27 to i64
  %29 = getelementptr inbounds [37 x ptr], ptr @map_typename_pattern.typename_map, i64 0, i64 %28
  %30 = load ptr, ptr %29, align 8
  store ptr %30, ptr %2, align 8
  store i32 1, ptr %5, align 4
  br label %35

31:                                               ; preds = %17
  br label %32

32:                                               ; preds = %31
  %33 = load i32, ptr %4, align 4
  %34 = add i32 %33, 2
  store i32 %34, ptr %4, align 4
  br label %10, !llvm.loop !9

35:                                               ; preds = %25, %16
  call void @llvm.lifetime.end.p0(i64 4, ptr %4) #8
  %36 = load i32, ptr %5, align 4
  switch i32 %36, label %41 [
    i32 2, label %37
    i32 1, label %39
  ]

37:                                               ; preds = %35
  %38 = load ptr, ptr %3, align 8
  store ptr %38, ptr %2, align 8
  br label %39

39:                                               ; preds = %37, %35, %8
  %40 = load ptr, ptr %2, align 8
  ret ptr %40

41:                                               ; preds = %35
  unreachable
}

; Function Attrs: nounwind uwtable
define internal void @printACLColumn(ptr noundef %0, ptr noundef %1) #0 {
  %3 = alloca ptr, align 8
  %4 = alloca ptr, align 8
  store ptr %0, ptr %3, align 8
  store ptr %1, ptr %4, align 8
  %5 = load ptr, ptr %3, align 8
  %6 = load ptr, ptr %4, align 8
  %7 = load ptr, ptr %4, align 8
  call void (ptr, ptr, ...) @appendPQExpBuffer(ptr noundef %5, ptr noundef @.str.916, ptr noundef %6, ptr noundef @.str.917, ptr noundef %7, ptr noundef @.str.167)
  ret void
}

; Function Attrs: nounwind uwtable
define dso_local zeroext i1 @describeTypes(ptr noundef %0, i1 noundef zeroext %1, i1 noundef zeroext %2) #0 {
  %4 = alloca i1, align 1
  %5 = alloca ptr, align 8
  %6 = alloca i8, align 1
  %7 = alloca i8, align 1
  %8 = alloca %struct.PQExpBufferData, align 8
  %9 = alloca ptr, align 8
  %10 = alloca %struct.printQueryOpt, align 8
  %11 = alloca i32, align 4
  store ptr %0, ptr %5, align 8
  %12 = zext i1 %1 to i8
  store i8 %12, ptr %6, align 1
  %13 = zext i1 %2 to i8
  store i8 %13, ptr %7, align 1
  call void @llvm.lifetime.start.p0(i64 24, ptr %8) #8
  call void @llvm.lifetime.start.p0(i64 8, ptr %9) #8
  call void @llvm.lifetime.start.p0(i64 168, ptr %10) #8
  call void @llvm.memcpy.p0.p0.i64(ptr align 8 %10, ptr align 8 getelementptr inbounds nuw (%struct._psqlSettings, ptr @pset, i32 0, i32 6), i64 168, i1 false)
  call void @initPQExpBuffer(ptr noundef %8)
  call void (ptr, ptr, ...) @printfPQExpBuffer(ptr noundef %8, ptr noundef @.str.98, ptr noundef @.str.1, ptr noundef @.str.2)
  %14 = load i8, ptr %6, align 1, !range !4, !noundef !5
  %15 = trunc i8 %14 to i1
  br i1 %15, label %16, label %17

16:                                               ; preds = %3
  call void (ptr, ptr, ...) @appendPQExpBuffer(ptr noundef %8, ptr noundef @.str.99, ptr noundef @.str.69, ptr noundef @.str.32, ptr noundef @.str.100, ptr noundef @.str.26)
  call void @printACLColumn(ptr noundef %8, ptr noundef @.str.101)
  call void @appendPQExpBufferStr(ptr noundef %8, ptr noundef @.str.28)
  br label %17

17:                                               ; preds = %16, %3
  call void (ptr, ptr, ...) @appendPQExpBuffer(ptr noundef %8, ptr noundef @.str.102, ptr noundef @.str.6)
  call void @appendPQExpBufferStr(ptr noundef %8, ptr noundef @.str.103)
  call void @appendPQExpBufferStr(ptr noundef %8, ptr noundef @.str.104)
  call void @appendPQExpBufferStr(ptr noundef %8, ptr noundef @.str.105)
  %18 = load ptr, ptr %5, align 8
  %19 = icmp eq ptr %18, null
  br i1 %19, label %24, label %20

20:                                               ; preds = %17
  %21 = load ptr, ptr %5, align 8
  %22 = call ptr @strstr(ptr noundef %21, ptr noundef @.str.106) #9
  %23 = icmp eq ptr %22, null
  br i1 %23, label %24, label %25

24:                                               ; preds = %20, %17
  call void @appendPQExpBufferStr(ptr noundef %8, ptr noundef @.str.107)
  br label %25

25:                                               ; preds = %24, %20
  %26 = load i8, ptr %7, align 1, !range !4, !noundef !5
  %27 = trunc i8 %26 to i1
  br i1 %27, label %32, label %28

28:                                               ; preds = %25
  %29 = load ptr, ptr %5, align 8
  %30 = icmp ne ptr %29, null
  br i1 %30, label %32, label %31

31:                                               ; preds = %28
  call void @appendPQExpBufferStr(ptr noundef %8, ptr noundef @.str.8)
  br label %32

32:                                               ; preds = %31, %28, %25
  %33 = load ptr, ptr %5, align 8
  %34 = call ptr @map_typename_pattern(ptr noundef %33)
  %35 = call zeroext i1 @validateSQLNamePattern(ptr noundef %8, ptr noundef %34, i1 noundef zeroext true, i1 noundef zeroext false, ptr noundef @.str.9, ptr noundef @.str.108, ptr noundef @.str.109, ptr noundef @.str.110, ptr noundef null, i32 noundef 3)
  br i1 %35, label %37, label %36

36:                                               ; preds = %32
  call void @termPQExpBuffer(ptr noundef %8)
  store i1 false, ptr %4, align 1
  store i32 1, ptr %11, align 4
  br label %51

37:                                               ; preds = %32
  call void @appendPQExpBufferStr(ptr noundef %8, ptr noundef @.str.111)
  %38 = getelementptr inbounds nuw %struct.PQExpBufferData, ptr %8, i32 0, i32 0
  %39 = load ptr, ptr %38, align 8
  %40 = call ptr @PSQLexec(ptr noundef %39)
  store ptr %40, ptr %9, align 8
  call void @termPQExpBuffer(ptr noundef %8)
  %41 = load ptr, ptr %9, align 8
  %42 = icmp ne ptr %41, null
  br i1 %42, label %44, label %43

43:                                               ; preds = %37
  store i1 false, ptr %4, align 1
  store i32 1, ptr %11, align 4
  br label %51

44:                                               ; preds = %37
  %45 = getelementptr inbounds nuw %struct.printQueryOpt, ptr %10, i32 0, i32 2
  store ptr @.str.112, ptr %45, align 8
  %46 = getelementptr inbounds nuw %struct.printQueryOpt, ptr %10, i32 0, i32 4
  store i8 1, ptr %46, align 8
  %47 = load ptr, ptr %9, align 8
  %48 = load ptr, ptr getelementptr inbounds nuw (%struct._psqlSettings, ptr @pset, i32 0, i32 2), align 8
  %49 = load ptr, ptr getelementptr inbounds nuw (%struct._psqlSettings, ptr @pset, i32 0, i32 28), align 8
  call void @printQuery(ptr noundef %47, ptr noundef %10, ptr noundef %48, i1 noundef zeroext false, ptr noundef %49)
  %50 = load ptr, ptr %9, align 8
  call void @PQclear(ptr noundef %50)
  store i1 true, ptr %4, align 1
  store i32 1, ptr %11, align 4
  br label %51

51:                                               ; preds = %44, %43, %36
  call void @llvm.lifetime.end.p0(i64 168, ptr %10) #8
  call void @llvm.lifetime.end.p0(i64 8, ptr %9) #8
  call void @llvm.lifetime.end.p0(i64 24, ptr %8) #8
  %52 = load i1, ptr %4, align 1
  ret i1 %52
}