; Function Attrs: nounwind uwtable
define dso_local noundef zeroext i1 @describeTypes(ptr noundef %0, i1 noundef zeroext %1, i1 noundef zeroext %2) local_unnamed_addr #0 {
  %4 = alloca %struct.PQExpBufferData, align 8
  %5 = alloca %struct.printQueryOpt, align 8
  call void @llvm.lifetime.start.p0(i64 24, ptr nonnull %4) #8
  call void @llvm.lifetime.start.p0(i64 168, ptr nonnull %5) #8
  call void @llvm.memcpy.p0.p0.i64(ptr noundef nonnull align 8 dereferenceable(168) %5, ptr noundef nonnull align 8 dereferenceable(168) getelementptr inbounds nuw (i8, ptr @pset, i64 48), i64 168, i1 false)
  call void @initPQExpBuffer(ptr noundef nonnull %4) #8
  call void (ptr, ptr, ...) @printfPQExpBuffer(ptr noundef nonnull %4, ptr noundef nonnull @.str.98, ptr noundef nonnull @.str.1, ptr noundef nonnull @.str.2) #8
  br i1 %1, label %6, label %7

6:                                                ; preds = %3
  call void (ptr, ptr, ...) @appendPQExpBuffer(ptr noundef nonnull %4, ptr noundef nonnull @.str.99, ptr noundef nonnull @.str.69, ptr noundef nonnull @.str.32, ptr noundef nonnull @.str.100, ptr noundef nonnull @.str.26) #8
  call void (ptr, ptr, ...) @appendPQExpBuffer(ptr noundef nonnull %4, ptr noundef nonnull @.str.916, ptr noundef nonnull @.str.101, ptr noundef nonnull @.str.917, ptr noundef nonnull @.str.101, ptr noundef nonnull @.str.167) #8
  call void @appendPQExpBufferStr(ptr noundef nonnull %4, ptr noundef nonnull @.str.28) #8
  br label %7

7:                                                ; preds = %6, %3
  call void (ptr, ptr, ...) @appendPQExpBuffer(ptr noundef nonnull %4, ptr noundef nonnull @.str.102, ptr noundef nonnull @.str.6) #8
  call void @appendPQExpBufferStr(ptr noundef nonnull %4, ptr noundef nonnull @.str.103) #8
  call void @appendPQExpBufferStr(ptr noundef nonnull %4, ptr noundef nonnull @.str.104) #8
  call void @appendPQExpBufferStr(ptr noundef nonnull %4, ptr noundef nonnull @.str.105) #8
  %8 = icmp eq ptr %0, null
  br i1 %8, label %12, label %9

9:                                                ; preds = %7
  %10 = call ptr @strstr(ptr noundef nonnull dereferenceable(1) %0, ptr noundef nonnull dereferenceable(1) @.str.106) #9
  %11 = icmp eq ptr %10, null
  br i1 %11, label %.thread13, label %.preheader.i.preheader

.thread13:                                        ; preds = %9
  call void @appendPQExpBufferStr(ptr noundef nonnull %4, ptr noundef nonnull @.str.107) #8
  br label %.preheader.i.preheader

.preheader.i.preheader:                           ; preds = %9, %.thread13
  br label %.preheader.i

12:                                               ; preds = %7
  call void @appendPQExpBufferStr(ptr noundef nonnull %4, ptr noundef nonnull @.str.107) #8
  br i1 %2, label %map_typename_pattern.exit, label %13

13:                                               ; preds = %12
  call void @appendPQExpBufferStr(ptr noundef nonnull %4, ptr noundef nonnull @.str.8) #8
  br label %map_typename_pattern.exit

.preheader.i:                                     ; preds = %.preheader.i.preheader, %23
  %indvars.iv.i = phi i64 [ %indvars.iv.next.i, %23 ], [ 0, %.preheader.i.preheader ]
  %14 = getelementptr inbounds nuw [37 x ptr], ptr @map_typename_pattern.typename_map, i64 0, i64 %indvars.iv.i
  %15 = load ptr, ptr %14, align 16
  %16 = call i32 @pg_strcasecmp(ptr noundef nonnull %0, ptr noundef %15) #8
  %17 = icmp eq i32 %16, 0
  br i1 %17, label %18, label %23

18:                                               ; preds = %.preheader.i
  %19 = shl i64 %indvars.iv.i, 32
  %sext.i = ashr exact i64 %19, 32
  %20 = or disjoint i64 %sext.i, 1
  %21 = getelementptr inbounds [37 x ptr], ptr @map_typename_pattern.typename_map, i64 0, i64 %20
  %22 = load ptr, ptr %21, align 8
  br label %map_typename_pattern.exit

23:                                               ; preds = %.preheader.i
  %indvars.iv.next.i = add nuw nsw i64 %indvars.iv.i, 2
  %.not.i = icmp eq i64 %indvars.iv.next.i, 36
  br i1 %.not.i, label %map_typename_pattern.exit, label %.preheader.i, !llvm.loop !6

map_typename_pattern.exit:                        ; preds = %23, %12, %13, %18
  %.09.i = phi ptr [ %22, %18 ], [ null, %13 ], [ null, %12 ], [ %0, %23 ]
  %24 = call fastcc zeroext i1 @validateSQLNamePattern(ptr noundef %4, ptr noundef %.09.i, i1 noundef zeroext true, i1 noundef zeroext false, ptr noundef nonnull @.str.9, ptr noundef nonnull @.str.108, ptr noundef nonnull @.str.109, ptr noundef nonnull @.str.110, ptr noundef null, i32 noundef 3)
  br i1 %24, label %26, label %25

25:                                               ; preds = %map_typename_pattern.exit
  call void @termPQExpBuffer(ptr noundef nonnull %4) #8
  br label %34

26:                                               ; preds = %map_typename_pattern.exit
  call void @appendPQExpBufferStr(ptr noundef nonnull %4, ptr noundef nonnull @.str.111) #8
  %27 = load ptr, ptr %4, align 8
  %28 = call ptr @PSQLexec(ptr noundef %27) #8
  call void @termPQExpBuffer(ptr noundef nonnull %4) #8
  %.not = icmp eq ptr %28, null
  br i1 %.not, label %34, label %29

29:                                               ; preds = %26
  %30 = getelementptr inbounds nuw i8, ptr %5, i64 128
  store ptr @.str.112, ptr %30, align 8
  %31 = getelementptr inbounds nuw i8, ptr %5, i64 144
  store i8 1, ptr %31, align 8
  %32 = load ptr, ptr getelementptr inbounds nuw (i8, ptr @pset, i64 16), align 8
  %33 = load ptr, ptr getelementptr inbounds nuw (i8, ptr @pset, i64 376), align 8
  call void @printQuery(ptr noundef nonnull %28, ptr noundef nonnull %5, ptr noundef %32, i1 noundef zeroext false, ptr noundef %33) #8
  call void @PQclear(ptr noundef nonnull %28) #8
  br label %34

34:                                               ; preds = %26, %29, %25
  %.0 = phi i1 [ true, %29 ], [ false, %25 ], [ false, %26 ]
  call void @llvm.lifetime.end.p0(i64 168, ptr nonnull %5) #8
  call void @llvm.lifetime.end.p0(i64 24, ptr nonnull %4) #8
  ret i1 %.0
}